; Function Attrs: nounwind uwtable
define internal ptr @proxy_pow(ptr noundef %0, ptr noundef %1, ptr noundef %2) #0 {
  %4 = getelementptr i8, ptr %0, i64 8
  %.val43 = load ptr, ptr %4, align 8, !tbaa !4
  %.not = icmp eq ptr %.val43, @_PyWeakref_ProxyType
  %.not71 = icmp eq ptr %.val43, @_PyWeakref_CallableProxyType
  %or.cond = or i1 %.not, %.not71
  br i1 %or.cond, label %5, label %12

5:                                                ; preds = %3
  %6 = getelementptr i8, ptr %0, i64 16
  %.val46 = load ptr, ptr %6, align 8, !tbaa !37
  %7 = icmp eq ptr %.val46, @_Py_NoneStruct
  br i1 %7, label %proxy_check_ref.exit, label %8

8:                                                ; preds = %5
  %.val.i.i = load i32, ptr %.val46, align 8, !tbaa !42
  %.not.i.i = icmp eq i32 %.val.i.i, 0
  br i1 %.not.i.i, label %proxy_check_ref.exit, label %9

9:                                                ; preds = %8
  %10 = icmp slt i32 %.val.i.i, 0
  br i1 %10, label %Py_INCREF.exit, label %Py_INCREF.exit.sink.split

proxy_check_ref.exit:                             ; preds = %8, %5
  %11 = load ptr, ptr @PyExc_ReferenceError, align 8, !tbaa !45
  tail call void @PyErr_SetString(ptr noundef %11, ptr noundef nonnull @.str.21) #6
  br label %Py_XDECREF.exit

12:                                               ; preds = %3
  %13 = load i32, ptr %0, align 8, !tbaa !42
  %14 = icmp slt i32 %13, 0
  br i1 %14, label %Py_INCREF.exit, label %Py_INCREF.exit.sink.split

Py_INCREF.exit.sink.split:                        ; preds = %12, %9
  %.val.i.i.sink = phi i32 [ %.val.i.i, %9 ], [ %13, %12 ]
  %.val46.sink = phi ptr [ %.val46, %9 ], [ %0, %12 ]
  %15 = add nuw i32 %.val.i.i.sink, 1
  store i32 %15, ptr %.val46.sink, align 8, !tbaa !42
  br label %Py_INCREF.exit

Py_INCREF.exit:                                   ; preds = %Py_INCREF.exit.sink.split, %9, %12
  %.026 = phi ptr [ %0, %12 ], [ %.val46, %9 ], [ %.val46.sink, %Py_INCREF.exit.sink.split ]
  %16 = getelementptr i8, ptr %1, i64 8
  %.val41 = load ptr, ptr %16, align 8, !tbaa !4
  %.not72 = icmp eq ptr %.val41, @_PyWeakref_ProxyType
  %.not73 = icmp eq ptr %.val41, @_PyWeakref_CallableProxyType
  %or.cond76 = or i1 %.not72, %.not73
  br i1 %or.cond76, label %17, label %24

17:                                               ; preds = %Py_INCREF.exit
  %18 = getelementptr i8, ptr %1, i64 16
  %.val45 = load ptr, ptr %18, align 8, !tbaa !37
  %19 = icmp eq ptr %.val45, @_Py_NoneStruct
  br i1 %19, label %proxy_check_ref.exit51, label %20

20:                                               ; preds = %17
  %.val.i.i47 = load i32, ptr %.val45, align 8, !tbaa !42
  %.not.i.i48 = icmp eq i32 %.val.i.i47, 0
  br i1 %.not.i.i48, label %proxy_check_ref.exit51, label %21

21:                                               ; preds = %20
  %22 = icmp slt i32 %.val.i.i47, 0
  br i1 %22, label %Py_INCREF.exit36, label %Py_INCREF.exit36.sink.split

proxy_check_ref.exit51:                           ; preds = %20, %17
  %23 = load ptr, ptr @PyExc_ReferenceError, align 8, !tbaa !45
  tail call void @PyErr_SetString(ptr noundef %23, ptr noundef nonnull @.str.21) #6
  br label %Py_XDECREF.exit

24:                                               ; preds = %Py_INCREF.exit
  %25 = load i32, ptr %1, align 8, !tbaa !42
  %26 = icmp slt i32 %25, 0
  br i1 %26, label %Py_INCREF.exit36, label %Py_INCREF.exit36.sink.split

Py_INCREF.exit36.sink.split:                      ; preds = %24, %21
  %.val.i.i47.sink = phi i32 [ %.val.i.i47, %21 ], [ %25, %24 ]
  %.val45.sink = phi ptr [ %.val45, %21 ], [ %1, %24 ]
  %27 = add nuw i32 %.val.i.i47.sink, 1
  store i32 %27, ptr %.val45.sink, align 8, !tbaa !42
  br label %Py_INCREF.exit36

Py_INCREF.exit36:                                 ; preds = %Py_INCREF.exit36.sink.split, %21, %24
  %.025 = phi ptr [ %1, %24 ], [ %.val45, %21 ], [ %.val45.sink, %Py_INCREF.exit36.sink.split ]
  %.not31 = icmp eq ptr %2, null
  br i1 %.not31, label %Py_INCREF.exit37, label %28

28:                                               ; preds = %Py_INCREF.exit36
  %29 = getelementptr i8, ptr %2, i64 8
  %.val39 = load ptr, ptr %29, align 8, !tbaa !4
  %.not74 = icmp eq ptr %.val39, @_PyWeakref_ProxyType
  %.not75 = icmp eq ptr %.val39, @_PyWeakref_CallableProxyType
  %or.cond77 = or i1 %.not74, %.not75
  br i1 %or.cond77, label %30, label %37

30:                                               ; preds = %28
  %31 = getelementptr i8, ptr %2, i64 16
  %.val44 = load ptr, ptr %31, align 8, !tbaa !37
  %32 = icmp eq ptr %.val44, @_Py_NoneStruct
  br i1 %32, label %proxy_check_ref.exit56, label %33

33:                                               ; preds = %30
  %.val.i.i52 = load i32, ptr %.val44, align 8, !tbaa !42
  %.not.i.i53 = icmp eq i32 %.val.i.i52, 0
  br i1 %.not.i.i53, label %proxy_check_ref.exit56, label %34

34:                                               ; preds = %33
  %35 = icmp slt i32 %.val.i.i52, 0
  br i1 %35, label %Py_INCREF.exit37, label %Py_INCREF.exit37.sink.split

proxy_check_ref.exit56:                           ; preds = %33, %30
  %36 = load ptr, ptr @PyExc_ReferenceError, align 8, !tbaa !45
  tail call void @PyErr_SetString(ptr noundef %36, ptr noundef nonnull @.str.21) #6
  br label %Py_XDECREF.exit

37:                                               ; preds = %28
  %38 = load i32, ptr %2, align 8, !tbaa !42
  %39 = icmp slt i32 %38, 0
  br i1 %39, label %Py_INCREF.exit37, label %Py_INCREF.exit37.sink.split

Py_INCREF.exit37.sink.split:                      ; preds = %37, %34
  %.val.i.i52.sink = phi i32 [ %.val.i.i52, %34 ], [ %38, %37 ]
  %.val44.sink = phi ptr [ %.val44, %34 ], [ %2, %37 ]
  %40 = add nuw i32 %.val.i.i52.sink, 1
  store i32 %40, ptr %.val44.sink, align 8, !tbaa !42
  br label %Py_INCREF.exit37

Py_INCREF.exit37:                                 ; preds = %Py_INCREF.exit37.sink.split, %34, %37, %Py_INCREF.exit36
  %.024 = phi ptr [ null, %Py_INCREF.exit36 ], [ %2, %37 ], [ %.val44, %34 ], [ %.val44.sink, %Py_INCREF.exit37.sink.split ]
  %41 = tail call ptr @PyNumber_Power(ptr noundef nonnull %.026, ptr noundef nonnull %.025, ptr noundef %.024) #6
  %42 = load i32, ptr %.026, align 8, !tbaa !42
  %.not.i34 = icmp sgt i32 %42, -1
  br i1 %.not.i34, label %43, label %Py_DECREF.exit35

43:                                               ; preds = %Py_INCREF.exit37
  %44 = add nsw i32 %42, -1
  store i32 %44, ptr %.026, align 8, !tbaa !42
  %45 = icmp eq i32 %44, 0
  br i1 %45, label %46, label %Py_DECREF.exit35

46:                                               ; preds = %43
  tail call void @_Py_Dealloc(ptr noundef nonnull %.026) #6
  br label %Py_DECREF.exit35

Py_DECREF.exit35:                                 ; preds = %Py_INCREF.exit37, %43, %46
  %47 = load i32, ptr %.025, align 8, !tbaa !42
  %.not.i = icmp sgt i32 %47, -1
  br i1 %.not.i, label %48, label %Py_DECREF.exit

48:                                               ; preds = %Py_DECREF.exit35
  %49 = add nsw i32 %47, -1
  store i32 %49, ptr %.025, align 8, !tbaa !42
  %50 = icmp eq i32 %49, 0
  br i1 %50, label %51, label %Py_DECREF.exit

51:                                               ; preds = %48
  tail call void @_Py_Dealloc(ptr noundef nonnull %.025) #6
  br label %Py_DECREF.exit

Py_DECREF.exit:                                   ; preds = %Py_DECREF.exit35, %48, %51
  %.not.i57 = icmp eq ptr %.024, null
  br i1 %.not.i57, label %Py_XDECREF.exit, label %52

52:                                               ; preds = %Py_DECREF.exit
  %53 = load i32, ptr %.024, align 8, !tbaa !42
  %.not.i.i58 = icmp sgt i32 %53, -1
  br i1 %.not.i.i58, label %54, label %Py_XDECREF.exit

54:                                               ; preds = %52
  %55 = add nsw i32 %53, -1
  store i32 %55, ptr %.024, align 8, !tbaa !42
  %56 = icmp eq i32 %55, 0
  br i1 %56, label %57, label %Py_XDECREF.exit

57:                                               ; preds = %54
  tail call void @_Py_Dealloc(ptr noundef nonnull %.024) #6
  br label %Py_XDECREF.exit

Py_XDECREF.exit:                                  ; preds = %57, %54, %52, %Py_DECREF.exit, %proxy_check_ref.exit56, %proxy_check_ref.exit51, %proxy_check_ref.exit
  %.0 = phi ptr [ null, %proxy_check_ref.exit ], [ null, %proxy_check_ref.exit51 ], [ null, %proxy_check_ref.exit56 ], [ %41, %Py_DECREF.exit ], [ %41, %52 ], [ %41, %54 ], [ %41, %57 ]
  ret ptr %.0
}